target datalayout = "e-m:e-p270:32:32-p271:32:32-p272:64:64-i64:64-i128:128-f80:128-n8:16:32:64-S128"
target triple = "x86_64-pc-linux-gnu"

%struct.ImRect = type { %struct.ImVec2, %struct.ImVec2 }
%struct.ImVec2 = type { float, float }
%struct.ImGuiTextBuffer = type { %struct.ImVector.28 }
%struct.ImVector.28 = type { i32, i32, ptr }
%struct.ImGuiTableInstanceData = type { i32, float, float, float, i32, i32 }
%struct.ImGuiTableColumn = type <{ i32, float, float, float, float, float, float, float, float, %struct.ImRect, i32, float, float, float, float, float, float, float, i16, i16, i16, i16, i16, i16, i16, i16, i16, i8, i8, i8, i8, i8, i8, i8, i8, i8, i8, i8, i8, i8, i8 }>
%struct.ImGuiTable = type <{ i32, i32, ptr, ptr, %struct.ImSpan, %struct.ImSpan.41, %struct.ImSpan.42, ptr, ptr, ptr, i32, i32, i32, i32, i32, i32, i16, i16, float, float, float, float, float, float, i32, i32, [2 x i32], i32, i32, float, float, float, float, float, float, float, float, float, float, float, float, float, float, float, float, float, %struct.ImRect, %struct.ImRect, %struct.ImRect, %struct.ImRect, %struct.ImRect, %struct.ImRect, %struct.ImRect, %struct.ImRect, %struct.ImRect, ptr, ptr, %struct.ImGuiTextBuffer, ptr, %struct.ImGuiTableInstanceData, %struct.ImVector.43, %struct.ImGuiTableColumnSortSpecs, [4 x i8], %struct.ImVector.44, %struct.ImGuiTableSortSpecs, i16, i16, i16, i16, i16, i16, i16, i16, i16, i16, i16, i16, i16, i16, i16, i16, i16, i16, i16, i16, i16, i16, i16, i16, i16, i16, i16, i8, i8, i8, i8, i8, i8, i8, i8, i8, i8, i8, i8, i8, i8, i8, i8, i8, i8, i8, i8, i8, [5 x i8] }>
%struct.ImSpan = type { ptr, ptr }
%struct.ImSpan.41 = type { ptr, ptr }
%struct.ImSpan.42 = type { ptr, ptr }
%struct.ImVector.43 = type { i32, i32, ptr }
%struct.ImGuiTableColumnSortSpecs = type <{ i32, i16, i16, i8, [3 x i8] }>
%struct.ImVector.44 = type { i32, i32, ptr }
%struct.ImGuiTableSortSpecs = type <{ ptr, i32, i8, [3 x i8] }>

; Function Attrs: mustprogress nounwind uwtable
define linkonce_odr void @_ZN6ImVec2C2Eff(ptr noundef nonnull align 4 dereferenceable(8) %0, float noundef %1, float noundef %2) unnamed_addr #7 comdat align 2 {
  %4 = alloca ptr, align 8
  %5 = alloca float, align 4
  %6 = alloca float, align 4
  store ptr %0, ptr %4, align 8, !tbaa !14
  store float %1, ptr %5, align 4, !tbaa !16
  store float %2, ptr %6, align 4, !tbaa !16
  %7 = load ptr, ptr %4, align 8
  %8 = getelementptr inbounds nuw %struct.ImVec2, ptr %7, i32 0, i32 0
  %9 = load float, ptr %5, align 4, !tbaa !16
  store float %9, ptr %8, align 4, !tbaa !71
  %10 = getelementptr inbounds nuw %struct.ImVec2, ptr %7, i32 0, i32 1
  %11 = load float, ptr %6, align 4, !tbaa !16
  store float %11, ptr %10, align 4, !tbaa !72
  ret void
}

; Function Attrs: mustprogress uwtable
define linkonce_odr void @_ZN6ImRectC2Effff(ptr noundef nonnull align 4 dereferenceable(16) %0, float noundef %1, float noundef %2, float noundef %3, float noundef %4) unnamed_addr #0 comdat align 2 {
  %6 = alloca ptr, align 8
  %7 = alloca float, align 4
  %8 = alloca float, align 4
  %9 = alloca float, align 4
  %10 = alloca float, align 4
  store ptr %0, ptr %6, align 8, !tbaa !301
  store float %1, ptr %7, align 4, !tbaa !16
  store float %2, ptr %8, align 4, !tbaa !16
  store float %3, ptr %9, align 4, !tbaa !16
  store float %4, ptr %10, align 4, !tbaa !16
  %11 = load ptr, ptr %6, align 8
  %12 = getelementptr inbounds nuw %struct.ImRect, ptr %11, i32 0, i32 0
  %13 = load float, ptr %7, align 4, !tbaa !16
  %14 = load float, ptr %8, align 4, !tbaa !16
  call void @_ZN6ImVec2C2Eff(ptr noundef nonnull align 4 dereferenceable(8) %12, float noundef %13, float noundef %14)
  %15 = getelementptr inbounds nuw %struct.ImRect, ptr %11, i32 0, i32 1
  %16 = load float, ptr %9, align 4, !tbaa !16
  %17 = load float, ptr %10, align 4, !tbaa !16
  call void @_ZN6ImVec2C2Eff(ptr noundef nonnull align 4 dereferenceable(8) %15, float noundef %16, float noundef %17)
  ret void
}

; Function Attrs: inlinehint mustprogress nounwind uwtable
define internal noundef float @_ZL5ImMinIfET_S0_S0_(float noundef %0, float noundef %1) #4 {
  %3 = alloca float, align 4
  %4 = alloca float, align 4
  store float %0, ptr %3, align 4, !tbaa !16
  store float %1, ptr %4, align 4, !tbaa !16
  %5 = load float, ptr %3, align 4, !tbaa !16
  %6 = load float, ptr %4, align 4, !tbaa !16
  %7 = fcmp olt float %5, %6
  br i1 %7, label %8, label %10

8:                                                ; preds = %2
  %9 = load float, ptr %3, align 4, !tbaa !16
  br label %12

10:                                               ; preds = %2
  %11 = load float, ptr %4, align 4, !tbaa !16
  br label %12

12:                                               ; preds = %10, %8
  %13 = phi float [ %9, %8 ], [ %11, %10 ]
  ret float %13
}

; Function Attrs: inlinehint mustprogress nounwind uwtable
define internal noundef float @_ZL5ImMaxIfET_S0_S0_(float noundef %0, float noundef %1) #4 {
  %3 = alloca float, align 4
  %4 = alloca float, align 4
  store float %0, ptr %3, align 4, !tbaa !16
  store float %1, ptr %4, align 4, !tbaa !16
  %5 = load float, ptr %3, align 4, !tbaa !16
  %6 = load float, ptr %4, align 4, !tbaa !16
  %7 = fcmp oge float %5, %6
  br i1 %7, label %8, label %10

8:                                                ; preds = %2
  %9 = load float, ptr %3, align 4, !tbaa !16
  br label %12

10:                                               ; preds = %2
  %11 = load float, ptr %4, align 4, !tbaa !16
  br label %12

12:                                               ; preds = %10, %8
  %13 = phi float [ %9, %8 ], [ %11, %10 ]
  ret float %13
}

; Function Attrs: inlinehint mustprogress nounwind uwtable
define linkonce_odr noundef nonnull align 4 dereferenceable(115) ptr @_ZNK6ImSpanI16ImGuiTableColumnEixEi(ptr noundef nonnull align 8 dereferenceable(16) %0, i32 noundef %1) #4 comdat align 2 {
  %3 = alloca ptr, align 8
  %4 = alloca i32, align 4
  %5 = alloca ptr, align 8
  store ptr %0, ptr %3, align 8, !tbaa !345
  store i32 %1, ptr %4, align 4, !tbaa !3
  %6 = load ptr, ptr %3, align 8
  call void @llvm.lifetime.start.p0(i64 8, ptr %5) #8
  %7 = getelementptr inbounds nuw %struct.ImSpan, ptr %6, i32 0, i32 0
  %8 = load ptr, ptr %7, align 8, !tbaa !348
  %9 = load i32, ptr %4, align 4, !tbaa !3
  %10 = sext i32 %9 to i64
  %11 = getelementptr inbounds %struct.ImGuiTableColumn, ptr %8, i64 %10
  store ptr %11, ptr %5, align 8, !tbaa !265
  %12 = load ptr, ptr %5, align 8, !tbaa !265
  call void @llvm.lifetime.end.p0(i64 8, ptr %5) #8
  ret ptr %12
}

; Function Attrs: mustprogress uwtable
define { <2 x float>, <2 x float> } @_ZN5ImGui18TableGetCellBgRectEPK10ImGuiTablei(ptr noundef %0, i32 noundef %1) #0 {
  %3 = alloca %struct.ImRect, align 4
  %4 = alloca ptr, align 8
  %5 = alloca i32, align 4
  %6 = alloca ptr, align 8
  %7 = alloca float, align 4
  %8 = alloca float, align 4
  store ptr %0, ptr %4, align 8, !tbaa !167
  store i32 %1, ptr %5, align 4, !tbaa !3
  call void @llvm.lifetime.start.p0(i64 8, ptr %6) #8
  %9 = load ptr, ptr %4, align 8, !tbaa !167
  %10 = getelementptr inbounds nuw %struct.ImGuiTable, ptr %9, i32 0, i32 4
  %11 = load i32, ptr %5, align 4, !tbaa !3
  %12 = call noundef nonnull align 4 dereferenceable(115) ptr @_ZNK6ImSpanI16ImGuiTableColumnEixEi(ptr noundef nonnull align 8 dereferenceable(16) %10, i32 noundef %11)
  store ptr %12, ptr %6, align 8, !tbaa !265
  call void @llvm.lifetime.start.p0(i64 4, ptr %7) #8
  %13 = load ptr, ptr %6, align 8, !tbaa !265
  %14 = getelementptr inbounds nuw %struct.ImGuiTableColumn, ptr %13, i32 0, i32 2
  %15 = load float, ptr %14, align 4, !tbaa !443
  store float %15, ptr %7, align 4, !tbaa !16
  call void @llvm.lifetime.start.p0(i64 4, ptr %8) #8
  %16 = load ptr, ptr %6, align 8, !tbaa !265
  %17 = getelementptr inbounds nuw %struct.ImGuiTableColumn, ptr %16, i32 0, i32 3
  %18 = load float, ptr %17, align 4, !tbaa !442
  store float %18, ptr %8, align 4, !tbaa !16
  %19 = load float, ptr %7, align 4, !tbaa !16
  %20 = load ptr, ptr %4, align 8, !tbaa !167
  %21 = getelementptr inbounds nuw %struct.ImGuiTable, ptr %20, i32 0, i32 48
  %22 = getelementptr inbounds nuw %struct.ImRect, ptr %21, i32 0, i32 0
  %23 = getelementptr inbounds nuw %struct.ImVec2, ptr %22, i32 0, i32 0
  %24 = load float, ptr %23, align 8, !tbaa !456
  %25 = call noundef float @_ZL5ImMaxIfET_S0_S0_(float noundef %19, float noundef %24)
  store float %25, ptr %7, align 4, !tbaa !16
  %26 = load float, ptr %8, align 4, !tbaa !16
  %27 = load ptr, ptr %4, align 8, !tbaa !167
  %28 = getelementptr inbounds nuw %struct.ImGuiTable, ptr %27, i32 0, i32 48
  %29 = getelementptr inbounds nuw %struct.ImRect, ptr %28, i32 0, i32 1
  %30 = getelementptr inbounds nuw %struct.ImVec2, ptr %29, i32 0, i32 0
  %31 = load float, ptr %30, align 8, !tbaa !459
  %32 = call noundef float @_ZL5ImMinIfET_S0_S0_(float noundef %26, float noundef %31)
  store float %32, ptr %8, align 4, !tbaa !16
  %33 = load float, ptr %7, align 4, !tbaa !16
  %34 = load ptr, ptr %4, align 8, !tbaa !167
  %35 = getelementptr inbounds nuw %struct.ImGuiTable, ptr %34, i32 0, i32 18
  %36 = load float, ptr %35, align 4, !tbaa !242
  %37 = load float, ptr %8, align 4, !tbaa !16
  %38 = load ptr, ptr %4, align 8, !tbaa !167
  %39 = getelementptr inbounds nuw %struct.ImGuiTable, ptr %38, i32 0, i32 19
  %40 = load float, ptr %39, align 8, !tbaa !241
  call void @_ZN6ImRectC2Effff(ptr noundef nonnull align 4 dereferenceable(16) %3, float noundef %33, float noundef %36, float noundef %37, float noundef %40)
  call void @llvm.lifetime.end.p0(i64 4, ptr %8) #8
  call void @llvm.lifetime.end.p0(i64 4, ptr %7) #8
  call void @llvm.lifetime.end.p0(i64 8, ptr %6) #8
  %41 = load { <2 x float>, <2 x float> }, ptr %3, align 4
  ret { <2 x float>, <2 x float> } %41
}