; Function Attrs: mustprogress nofree norecurse nosync nounwind willreturn memory(read, inaccessiblemem: none) uwtable
define { <2 x float>, <2 x float> } @_ZN5ImGui18TableGetCellBgRectEPK10ImGuiTablei(ptr noundef readonly captures(none) %0, i32 noundef %1) local_unnamed_addr #13 {
  %3 = getelementptr inbounds nuw i8, ptr %0, i64 24
  %4 = load ptr, ptr %3, align 8, !tbaa !278
  %5 = sext i32 %1 to i64
  %6 = getelementptr inbounds %struct.ImGuiTableColumn, ptr %4, i64 %5
  %7 = getelementptr inbounds nuw i8, ptr %6, i64 8
  %8 = load float, ptr %7, align 4, !tbaa !406
  %9 = getelementptr inbounds nuw i8, ptr %6, i64 12
  %10 = load float, ptr %9, align 4, !tbaa !405
  %11 = getelementptr inbounds nuw i8, ptr %0, i64 272
  %12 = load float, ptr %11, align 8, !tbaa !417
  %13 = fcmp oge float %8, %12
  %14 = select i1 %13, float %8, float %12
  %15 = getelementptr inbounds nuw i8, ptr %0, i64 280
  %16 = load float, ptr %15, align 8, !tbaa !413
  %17 = fcmp olt float %10, %16
  %18 = select i1 %17, float %10, float %16
  %19 = getelementptr inbounds nuw i8, ptr %0, i64 124
  %20 = load float, ptr %19, align 4, !tbaa !255
  %21 = getelementptr inbounds nuw i8, ptr %0, i64 128
  %22 = load float, ptr %21, align 8, !tbaa !254
  %.sroa.0.0.vec.insert = insertelement <2 x float> poison, float %14, i64 0
  %.sroa.0.4.vec.insert = insertelement <2 x float> %.sroa.0.0.vec.insert, float %20, i64 1
  %.sroa.3.8.vec.insert = insertelement <2 x float> poison, float %18, i64 0
  %.sroa.3.12.vec.insert = insertelement <2 x float> %.sroa.3.8.vec.insert, float %22, i64 1
  %.fca.0.insert = insertvalue { <2 x float>, <2 x float> } poison, <2 x float> %.sroa.0.4.vec.insert, 0
  %.fca.1.insert = insertvalue { <2 x float>, <2 x float> } %.fca.0.insert, <2 x float> %.sroa.3.12.vec.insert, 1
  ret { <2 x float>, <2 x float> } %.fca.1.insert
}